; Function Attrs: mustprogress nounwind uwtable
define hidden noundef ptr @_ZN18cmpF_cc_reg_CFNode12cisc_versionEi(ptr noundef nonnull align 8 dereferenceable(96) %0, i32 noundef %1) unnamed_addr #3 align 2 {
  %3 = tail call align 8 ptr @llvm.threadlocal.address.p0(ptr align 8 @_ZN6Thread12_thr_currentE)
  %4 = load ptr, ptr %3, align 8
  %5 = getelementptr inbounds i8, ptr %4, i64 1808
  %6 = load ptr, ptr %5, align 8
  %7 = getelementptr inbounds i8, ptr %6, i64 128
  %8 = load ptr, ptr %7, align 8
  %9 = getelementptr inbounds i8, ptr %8, i64 728
  %10 = load ptr, ptr %9, align 8
  %11 = getelementptr inbounds i8, ptr %10, i64 40
  %12 = load ptr, ptr %11, align 8
  %13 = getelementptr inbounds i8, ptr %10, i64 32
  %14 = load ptr, ptr %13, align 8
  %15 = ptrtoint ptr %12 to i64
  %16 = ptrtoint ptr %14 to i64
  %17 = sub i64 %15, %16
  %.not.i.i.i = icmp ult i64 %17, 88
  br i1 %.not.i.i.i, label %20, label %18

18:                                               ; preds = %2
  %19 = getelementptr inbounds i8, ptr %14, i64 88
  store ptr %19, ptr %13, align 8
  br label %_ZN4NodenwEm.exit

20:                                               ; preds = %2
  %21 = tail call noundef ptr @_ZN5Arena4growEmN17AllocFailStrategy13AllocFailEnumE(ptr noundef nonnull align 8 dereferenceable(48) %10, i64 noundef 88, i32 noundef 0) #23
  br label %_ZN4NodenwEm.exit

_ZN4NodenwEm.exit:                                ; preds = %18, %20
  %.0.i.i.i = phi ptr [ %14, %18 ], [ %21, %20 ]
  %22 = icmp eq ptr %.0.i.i.i, null
  br i1 %22, label %32, label %23

23:                                               ; preds = %_ZN4NodenwEm.exit
  tail call void @_ZN4NodeC2Ej(ptr noundef nonnull align 8 dereferenceable(52) %.0.i.i.i, i32 noundef 0) #23
  %24 = getelementptr inbounds i8, ptr %.0.i.i.i, i64 52
  store i8 0, ptr %24, align 4
  %25 = getelementptr inbounds i8, ptr %.0.i.i.i, i64 54
  %26 = getelementptr inbounds i8, ptr %.0.i.i.i, i64 56
  %27 = getelementptr inbounds i8, ptr %.0.i.i.i, i64 44
  store i32 2, ptr %27, align 4
  store ptr getelementptr inbounds inrange(-16, 360) (i8, ptr @_ZTV17cmpF_cc_memCFNode, i64 16), ptr %.0.i.i.i, align 8
  store i16 3, ptr %25, align 2
  %28 = getelementptr inbounds i8, ptr %.0.i.i.i, i64 64
  store ptr %28, ptr %26, align 8
  %29 = getelementptr inbounds i8, ptr %.0.i.i.i, i64 48
  %30 = load i32, ptr %29, align 8
  %31 = or i32 %30, 36
  store i32 %31, ptr %29, align 8
  br label %32

32:                                               ; preds = %23, %_ZN4NodenwEm.exit
  tail call void @_ZNK8MachNode17fill_new_machnodeEPS_(ptr noundef nonnull align 8 dereferenceable(64) %0, ptr noundef %.0.i.i.i) #23
  %33 = load ptr, ptr %0, align 8
  %34 = getelementptr inbounds i8, ptr %33, i64 184
  %35 = load ptr, ptr %34, align 8
  %36 = tail call noundef i32 %35(ptr noundef nonnull align 8 dereferenceable(96) %0) #23
  %37 = load ptr, ptr %3, align 8
  %38 = getelementptr inbounds i8, ptr %37, i64 1808
  %39 = load ptr, ptr %38, align 8
  %40 = getelementptr inbounds i8, ptr %39, i64 128
  %41 = load ptr, ptr %40, align 8
  %42 = getelementptr inbounds i8, ptr %41, i64 728
  %43 = load ptr, ptr %42, align 8
  %44 = getelementptr inbounds i8, ptr %43, i64 40
  %45 = load ptr, ptr %44, align 8
  %46 = getelementptr inbounds i8, ptr %43, i64 32
  %47 = load ptr, ptr %46, align 8
  %48 = ptrtoint ptr %45 to i64
  %49 = ptrtoint ptr %47 to i64
  %50 = sub i64 %48, %49
  %.not.i.i.i5 = icmp ult i64 %50, 16
  br i1 %.not.i.i.i5, label %53, label %51

51:                                               ; preds = %32
  %52 = getelementptr inbounds i8, ptr %47, i64 16
  store ptr %52, ptr %46, align 8
  br label %_ZN8MachOpernwEm.exit

53:                                               ; preds = %32
  %54 = tail call noundef ptr @_ZN5Arena4growEmN17AllocFailStrategy13AllocFailEnumE(ptr noundef nonnull align 8 dereferenceable(48) %43, i64 noundef 16, i32 noundef 0) #23
  br label %_ZN8MachOpernwEm.exit

_ZN8MachOpernwEm.exit:                            ; preds = %51, %53
  %.0.i.i.i6 = phi ptr [ %47, %51 ], [ %54, %53 ]
  %55 = icmp eq ptr %.0.i.i.i6, null
  br i1 %55, label %59, label %56

56:                                               ; preds = %_ZN8MachOpernwEm.exit
  %57 = sext i32 %1 to i64
  store ptr getelementptr inbounds inrange(-16, 232) (i8, ptr @_ZTV15indOffset32Oper, i64 16), ptr %.0.i.i.i6, align 8
  %58 = getelementptr inbounds i8, ptr %.0.i.i.i6, i64 8
  store i64 %57, ptr %58, align 8
  br label %59

59:                                               ; preds = %56, %_ZN8MachOpernwEm.exit
  %60 = getelementptr inbounds i8, ptr %.0.i.i.i, i64 64
  %61 = zext i32 %36 to i64
  %62 = getelementptr inbounds [3 x ptr], ptr %60, i64 0, i64 %61
  store ptr %.0.i.i.i6, ptr %62, align 8
  ret ptr %.0.i.i.i
}